; ModuleID = 'bench/portaudio/original/pa_stream.ll'
source_filename = "bench/portaudio/original/pa_stream.ll"
target datalayout = "e-m:e-p270:32:32-p271:32:32-p272:64:64-i64:64-i128:128-f80:128-n8:16:32:64-S128"
target triple = "x86_64-pc-linux-gnu"

; Function Attrs: mustprogress nofree norecurse nosync nounwind willreturn memory(argmem: write) uwtable
define void @PaUtil_InitializeStreamInterface(ptr noundef writeonly captures(none) initializes((0, 96)) %0, ptr noundef %1, ptr noundef %2, ptr noundef %3, ptr noundef %4, ptr noundef %5, ptr noundef %6, ptr noundef %7, ptr noundef %8, ptr noundef %9, ptr noundef %10, ptr noundef %11, ptr noundef %12) local_unnamed_addr #0 {
  store ptr %1, ptr %0, align 8, !tbaa !3
  %14 = getelementptr inbounds nuw i8, ptr %0, i64 8
  store ptr %2, ptr %14, align 8, !tbaa !8
  %15 = getelementptr inbounds nuw i8, ptr %0, i64 16
  store ptr %3, ptr %15, align 8, !tbaa !9
  %16 = getelementptr inbounds nuw i8, ptr %0, i64 24
  store ptr %4, ptr %16, align 8, !tbaa !10
  %17 = getelementptr inbounds nuw i8, ptr %0, i64 32
  store ptr %5, ptr %17, align 8, !tbaa !11
  %18 = getelementptr inbounds nuw i8, ptr %0, i64 40
  store ptr %6, ptr %18, align 8, !tbaa !12
  %19 = getelementptr inbounds nuw i8, ptr %0, i64 48
  store ptr %7, ptr %19, align 8, !tbaa !13
  %20 = getelementptr inbounds nuw i8, ptr %0, i64 56
  store ptr %8, ptr %20, align 8, !tbaa !14
  %21 = getelementptr inbounds nuw i8, ptr %0, i64 64
  store ptr %9, ptr %21, align 8, !tbaa !15
  %22 = getelementptr inbounds nuw i8, ptr %0, i64 72
  store ptr %10, ptr %22, align 8, !tbaa !16
  %23 = getelementptr inbounds nuw i8, ptr %0, i64 80
  store ptr %11, ptr %23, align 8, !tbaa !17
  %24 = getelementptr inbounds nuw i8, ptr %0, i64 88
  store ptr %12, ptr %24, align 8, !tbaa !18
  ret void
}

; Function Attrs: mustprogress nofree norecurse nosync nounwind willreturn memory(argmem: write) uwtable
define void @PaUtil_InitializeStreamRepresentation(ptr noundef writeonly captures(none) initializes((0, 48), (56, 80)) %0, ptr noundef %1, ptr noundef %2, ptr noundef %3) local_unnamed_addr #0 {
  store i64 405222981, ptr %0, align 8, !tbaa !19
  %5 = getelementptr inbounds nuw i8, ptr %0, i64 8
  store ptr null, ptr %5, align 8, !tbaa !26
  %6 = getelementptr inbounds nuw i8, ptr %0, i64 16
  store ptr %1, ptr %6, align 8, !tbaa !27
  %7 = getelementptr inbounds nuw i8, ptr %0, i64 24
  store ptr %2, ptr %7, align 8, !tbaa !28
  %8 = getelementptr inbounds nuw i8, ptr %0, i64 32
  store ptr null, ptr %8, align 8, !tbaa !29
  %9 = getelementptr inbounds nuw i8, ptr %0, i64 40
  store ptr %3, ptr %9, align 8, !tbaa !30
  %10 = getelementptr inbounds nuw i8, ptr %0, i64 56
  tail call void @llvm.memset.p0.i64(ptr noundef nonnull align 8 dereferenceable(24) %10, i8 0, i64 24, i1 false)
  ret void
}

; Function Attrs: mustprogress nofree norecurse nosync nounwind willreturn memory(argmem: write) uwtable
define void @PaUtil_TerminateStreamRepresentation(ptr noundef writeonly captures(none) initializes((0, 8)) %0) local_unnamed_addr #0 {
  store i64 0, ptr %0, align 8, !tbaa !19
  ret void
}

; Function Attrs: mustprogress nofree norecurse nosync nounwind willreturn memory(none) uwtable
define noundef i32 @PaUtil_DummyRead(ptr noundef readnone captures(none) %0, ptr noundef readnone captures(none) %1, i64 noundef %2) local_unnamed_addr #1 {
  ret i32 -9977
}

; Function Attrs: mustprogress nofree norecurse nosync nounwind willreturn memory(none) uwtable
define noundef i32 @PaUtil_DummyWrite(ptr noundef readnone captures(none) %0, ptr noundef readnone captures(none) %1, i64 noundef %2) local_unnamed_addr #1 {
  ret i32 -9976
}

; Function Attrs: mustprogress nofree norecurse nosync nounwind willreturn memory(none) uwtable
define noundef i64 @PaUtil_DummyGetReadAvailable(ptr noundef readnone captures(none) %0) local_unnamed_addr #1 {
  ret i64 -9977
}

; Function Attrs: mustprogress nofree norecurse nosync nounwind willreturn memory(none) uwtable
define noundef i64 @PaUtil_DummyGetWriteAvailable(ptr noundef readnone captures(none) %0) local_unnamed_addr #1 {
  ret i64 -9976
}

; Function Attrs: mustprogress nofree norecurse nosync nounwind willreturn memory(none) uwtable
define noundef double @PaUtil_DummyGetCpuLoad(ptr noundef readnone captures(none) %0) local_unnamed_addr #1 {
  ret double 0.000000e+00
}

; Function Attrs: nocallback nofree nounwind willreturn memory(argmem: write)
declare void @llvm.memset.p0.i64(ptr writeonly captures(none), i8, i64, i1 immarg) #2


!llvm.module.flags = !{!0, !1, !2}

!0 = !{i32 1, !"wchar_size", i32 4}
!1 = !{i32 8, !"PIC Level", i32 2}
!2 = !{i32 7, !"uwtable", i32 2}
!3 = !{!4, !5, i64 0}
!4 = !{!"", !5, i64 0, !5, i64 8, !5, i64 16, !5, i64 24, !5, i64 32, !5, i64 40, !5, i64 48, !5, i64 56, !5, i64 64, !5, i64 72, !5, i64 80, !5, i64 88}
!5 = !{!"any pointer", !6, i64 0}
!6 = !{!"omnipotent char", !7, i64 0}
!7 = !{!"Simple C/C++ TBAA"}
!8 = !{!4, !5, i64 8}
!9 = !{!4, !5, i64 16}
!10 = !{!4, !5, i64 24}
!11 = !{!4, !5, i64 32}
!12 = !{!4, !5, i64 40}
!13 = !{!4, !5, i64 48}
!14 = !{!4, !5, i64 56}
!15 = !{!4, !5, i64 64}
!16 = !{!4, !5, i64 72}
!17 = !{!4, !5, i64 80}
!18 = !{!4, !5, i64 88}
!19 = !{!20, !21, i64 0}
!20 = !{!"PaUtilStreamRepresentation", !21, i64 0, !22, i64 8, !5, i64 16, !5, i64 24, !5, i64 32, !5, i64 40, !23, i64 48}
!21 = !{!"long", !6, i64 0}
!22 = !{!"p1 _ZTS26PaUtilStreamRepresentation", !5, i64 0}
!23 = !{!"PaStreamInfo", !24, i64 0, !25, i64 8, !25, i64 16, !25, i64 24}
!24 = !{!"int", !6, i64 0}
!25 = !{!"double", !6, i64 0}
!26 = !{!20, !22, i64 8}
!27 = !{!20, !5, i64 16}
!28 = !{!20, !5, i64 24}
!29 = !{!20, !5, i64 32}
!30 = !{!20, !5, i64 40}
